; Function Attrs: mustprogress uwtable
define void @_ZN32pxrInternal_v0_24__pxrReserved__7VtValue12CastToTypeOfERKS0_S2_(ptr dead_on_unwind noalias writable sret(%"class.pxrInternal_v0_24__pxrReserved__::VtValue") align 8 %0, ptr noundef nonnull align 8 dereferenceable(16) %1, ptr noundef nonnull align 8 dereferenceable(16) %2) local_unnamed_addr #0 align 2 personality ptr @__gxx_personality_v0 {
  %4 = alloca %"class.pxrInternal_v0_24__pxrReserved__::VtValue", align 8
  %5 = getelementptr inbounds nuw i8, ptr %4, i64 8
  store ptr null, ptr %5, align 8
  call void @_ZN32pxrInternal_v0_24__pxrReserved__7VtValue5_CopyERKS0_RS0_(ptr noundef nonnull align 8 dereferenceable(16) %1, ptr noundef nonnull align 8 dereferenceable(16) %4)
  %6 = getelementptr inbounds nuw i8, ptr %2, i64 8
  %7 = load ptr, ptr %6, align 8
  %.not.i.i = icmp eq ptr %7, null
  br i1 %.not.i.i, label %_ZNK32pxrInternal_v0_24__pxrReserved__7VtValue9GetTypeidEv.exit.i, label %8

8:                                                ; preds = %3
  %9 = ptrtoint ptr %7 to i64
  %10 = and i64 %9, -8
  %11 = inttoptr i64 %10 to ptr
  %12 = getelementptr inbounds nuw i8, ptr %11, i64 160
  %13 = load ptr, ptr %12, align 8
  %14 = invoke noundef nonnull align 8 dereferenceable(16) ptr %13(ptr noundef nonnull align 8 dereferenceable(8) %2)
          to label %_ZNK32pxrInternal_v0_24__pxrReserved__7VtValue9GetTypeidEv.exit.i unwind label %30

_ZNK32pxrInternal_v0_24__pxrReserved__7VtValue9GetTypeidEv.exit.i: ; preds = %8, %3
  %15 = phi ptr [ @_ZTIv, %3 ], [ %14, %8 ]
  %16 = invoke noundef nonnull align 8 dereferenceable(16) ptr @_ZN32pxrInternal_v0_24__pxrReserved__7VtValue12CastToTypeidERKSt9type_info(ptr noundef nonnull align 8 dereferenceable(16) %4, ptr noundef nonnull align 8 dereferenceable(16) %15)
          to label %_ZN32pxrInternal_v0_24__pxrReserved__7VtValue12CastToTypeOfERKS0_.exit unwind label %30

_ZN32pxrInternal_v0_24__pxrReserved__7VtValue12CastToTypeOfERKS0_.exit: ; preds = %_ZNK32pxrInternal_v0_24__pxrReserved__7VtValue9GetTypeidEv.exit.i
  %17 = getelementptr inbounds nuw i8, ptr %0, i64 8
  store ptr null, ptr %17, align 8
  invoke void @_ZN32pxrInternal_v0_24__pxrReserved__7VtValue5_CopyERKS0_RS0_(ptr noundef nonnull align 8 dereferenceable(16) %16, ptr noundef nonnull align 8 dereferenceable(16) %0)
          to label %_ZN32pxrInternal_v0_24__pxrReserved__7VtValueC2ERKS0_.exit unwind label %30

_ZN32pxrInternal_v0_24__pxrReserved__7VtValueC2ERKS0_.exit: ; preds = %_ZN32pxrInternal_v0_24__pxrReserved__7VtValue12CastToTypeOfERKS0_.exit
  %18 = load ptr, ptr %5, align 8
  %19 = ptrtoint ptr %18 to i64
  %.not.i.i5 = icmp eq ptr %18, null
  %20 = and i64 %19, 3
  %21 = icmp eq i64 %20, 3
  %or.cond.i.i = or i1 %.not.i.i5, %21
  br i1 %or.cond.i.i, label %_ZN32pxrInternal_v0_24__pxrReserved__7VtValueD2Ev.exit, label %22

22:                                               ; preds = %_ZN32pxrInternal_v0_24__pxrReserved__7VtValueC2ERKS0_.exit
  %23 = and i64 %19, -8
  %24 = inttoptr i64 %23 to ptr
  %25 = getelementptr inbounds nuw i8, ptr %24, i64 32
  %26 = load ptr, ptr %25, align 8
  invoke void %26(ptr noundef nonnull align 8 dereferenceable(8) %4)
          to label %_ZN32pxrInternal_v0_24__pxrReserved__7VtValueD2Ev.exit unwind label %27

27:                                               ; preds = %22
  %28 = landingpad { ptr, i32 }
          catch ptr null
  %29 = extractvalue { ptr, i32 } %28, 0
  call void @__clang_call_terminate(ptr %29) #26
  unreachable

_ZN32pxrInternal_v0_24__pxrReserved__7VtValueD2Ev.exit: ; preds = %_ZN32pxrInternal_v0_24__pxrReserved__7VtValueC2ERKS0_.exit, %22
  ret void

30:                                               ; preds = %_ZN32pxrInternal_v0_24__pxrReserved__7VtValue12CastToTypeOfERKS0_.exit, %_ZNK32pxrInternal_v0_24__pxrReserved__7VtValue9GetTypeidEv.exit.i, %8
  %31 = landingpad { ptr, i32 }
          cleanup
  call void @_ZN32pxrInternal_v0_24__pxrReserved__7VtValueD2Ev(ptr noundef nonnull align 8 dereferenceable(16) %4) #16
  resume { ptr, i32 } %31
}